target datalayout = "e-m:e-p270:32:32-p271:32:32-p272:64:64-i64:64-i128:128-f80:128-n8:16:32:64-S128"
target triple = "x86_64-pc-linux-gnu"

%struct.uv_loop_s = type { ptr, i32, %struct.uv__queue, %union.anon, ptr, i32, i64, i32, %struct.uv__queue, %struct.uv__queue, ptr, i32, i32, %struct.uv__queue, %union.pthread_mutex_t, %struct.uv_async_s, %union.pthread_rwlock_t, ptr, %struct.uv__queue, %struct.uv__queue, %struct.uv__queue, %struct.uv__queue, %struct.uv__queue, ptr, %struct.uv__io_s, i32, %struct.anon, i64, i64, [2 x i32], %struct.uv__io_s, %struct.uv_signal_s, i32, %struct.uv__io_s, ptr, i32 }
%union.anon = type { ptr }
%union.pthread_mutex_t = type { %struct.__pthread_mutex_s }
%struct.__pthread_mutex_s = type { i32, i32, i32, i32, i32, i16, i16, %struct.__pthread_internal_list }
%struct.__pthread_internal_list = type { ptr, ptr }
%struct.uv_async_s = type { ptr, ptr, i32, ptr, %struct.uv__queue, %union.anon.0, ptr, i32, ptr, %struct.uv__queue, i32 }
%union.anon.0 = type { [4 x ptr] }
%union.pthread_rwlock_t = type { %struct.__pthread_rwlock_arch_t }
%struct.__pthread_rwlock_arch_t = type { i32, i32, i32, i32, i32, i32, i32, i32, i8, [7 x i8], i64, i32 }
%struct.uv__queue = type { ptr, ptr }
%struct.anon = type { ptr, i32 }
%struct.uv_signal_s = type { ptr, ptr, i32, ptr, %struct.uv__queue, %union.anon.1, ptr, i32, ptr, i32, %struct.anon.2, i32, i32 }
%union.anon.1 = type { [4 x ptr] }
%struct.anon.2 = type { ptr, ptr, ptr, i32 }
%struct.uv__io_s = type { ptr, %struct.uv__queue, %struct.uv__queue, i32, i32, i32 }
%struct.uv__signal_msg_t = type { ptr, i32 }

; Function Attrs: nounwind uwtable
define internal void @uv__signal_event(ptr noundef %0, ptr noundef %1, i32 noundef %2) #0 {
  %4 = alloca ptr, align 8
  %5 = alloca ptr, align 8
  %6 = alloca i32, align 4
  %7 = alloca ptr, align 8
  %8 = alloca ptr, align 8
  %9 = alloca [512 x i8], align 16
  %10 = alloca i64, align 8
  %11 = alloca i64, align 8
  %12 = alloca i64, align 8
  %13 = alloca i32, align 4
  %14 = alloca i32, align 4
  store ptr %0, ptr %4, align 8
  store ptr %1, ptr %5, align 8
  store i32 %2, ptr %6, align 4
  call void @llvm.lifetime.start.p0(i64 8, ptr %7) #9
  call void @llvm.lifetime.start.p0(i64 8, ptr %8) #9
  call void @llvm.lifetime.start.p0(i64 512, ptr %9) #9
  call void @llvm.lifetime.start.p0(i64 8, ptr %10) #9
  call void @llvm.lifetime.start.p0(i64 8, ptr %11) #9
  call void @llvm.lifetime.start.p0(i64 8, ptr %12) #9
  call void @llvm.lifetime.start.p0(i64 4, ptr %13) #9
  store i64 0, ptr %10, align 8
  store i64 0, ptr %11, align 8
  br label %15

15:                                               ; preds = %117, %3
  %16 = load ptr, ptr %4, align 8
  %17 = getelementptr inbounds nuw %struct.uv_loop_s, ptr %16, i32 0, i32 29
  %18 = getelementptr inbounds [2 x i32], ptr %17, i64 0, i64 0
  %19 = load i32, ptr %18, align 8
  %20 = getelementptr inbounds [512 x i8], ptr %9, i64 0, i64 0
  %21 = load i64, ptr %10, align 8
  %22 = getelementptr inbounds nuw i8, ptr %20, i64 %21
  %23 = load i64, ptr %10, align 8
  %24 = sub i64 512, %23
  %25 = call i64 @read(i32 noundef %19, ptr noundef %22, i64 noundef %24)
  %26 = trunc i64 %25 to i32
  store i32 %26, ptr %13, align 4
  %27 = load i32, ptr %13, align 4
  %28 = icmp eq i32 %27, -1
  br i1 %28, label %29, label %34

29:                                               ; preds = %15
  %30 = call ptr @__errno_location() #11
  %31 = load i32, ptr %30, align 4
  %32 = icmp eq i32 %31, 4
  br i1 %32, label %33, label %34

33:                                               ; preds = %29
  br label %117

34:                                               ; preds = %29, %15
  %35 = load i32, ptr %13, align 4
  %36 = icmp eq i32 %35, -1
  br i1 %36, label %37, label %50

37:                                               ; preds = %34
  %38 = call ptr @__errno_location() #11
  %39 = load i32, ptr %38, align 4
  %40 = icmp eq i32 %39, 11
  br i1 %40, label %45, label %41

41:                                               ; preds = %37
  %42 = call ptr @__errno_location() #11
  %43 = load i32, ptr %42, align 4
  %44 = icmp eq i32 %43, 11
  br i1 %44, label %45, label %50

45:                                               ; preds = %41, %37
  %46 = load i64, ptr %10, align 8
  %47 = icmp ugt i64 %46, 0
  br i1 %47, label %48, label %49

48:                                               ; preds = %45
  br label %117

49:                                               ; preds = %45
  store i32 1, ptr %14, align 4
  br label %121

50:                                               ; preds = %41, %34
  %51 = load i32, ptr %13, align 4
  %52 = icmp eq i32 %51, -1
  br i1 %52, label %53, label %54

53:                                               ; preds = %50
  call void @abort() #10
  unreachable

54:                                               ; preds = %50
  %55 = load i32, ptr %13, align 4
  %56 = sext i32 %55 to i64
  %57 = load i64, ptr %10, align 8
  %58 = add i64 %57, %56
  store i64 %58, ptr %10, align 8
  %59 = load i64, ptr %10, align 8
  %60 = udiv i64 %59, 16
  %61 = mul i64 %60, 16
  store i64 %61, ptr %11, align 8
  store i64 0, ptr %12, align 8
  br label %62

62:                                               ; preds = %101, %54
  %63 = load i64, ptr %12, align 8
  %64 = load i64, ptr %11, align 8
  %65 = icmp ult i64 %63, %64
  br i1 %65, label %66, label %104

66:                                               ; preds = %62
  %67 = getelementptr inbounds [512 x i8], ptr %9, i64 0, i64 0
  %68 = load i64, ptr %12, align 8
  %69 = getelementptr inbounds nuw i8, ptr %67, i64 %68
  store ptr %69, ptr %7, align 8
  %70 = load ptr, ptr %7, align 8
  %71 = getelementptr inbounds nuw %struct.uv__signal_msg_t, ptr %70, i32 0, i32 0
  %72 = load ptr, ptr %71, align 8
  store ptr %72, ptr %8, align 8
  %73 = load ptr, ptr %7, align 8
  %74 = getelementptr inbounds nuw %struct.uv__signal_msg_t, ptr %73, i32 0, i32 1
  %75 = load i32, ptr %74, align 8
  %76 = load ptr, ptr %8, align 8
  %77 = getelementptr inbounds nuw %struct.uv_signal_s, ptr %76, i32 0, i32 9
  %78 = load i32, ptr %77, align 8
  %79 = icmp eq i32 %75, %78
  br i1 %79, label %80, label %88

80:                                               ; preds = %66
  %81 = load ptr, ptr %8, align 8
  %82 = getelementptr inbounds nuw %struct.uv_signal_s, ptr %81, i32 0, i32 8
  %83 = load ptr, ptr %82, align 8
  %84 = load ptr, ptr %8, align 8
  %85 = load ptr, ptr %8, align 8
  %86 = getelementptr inbounds nuw %struct.uv_signal_s, ptr %85, i32 0, i32 9
  %87 = load i32, ptr %86, align 8
  call void %83(ptr noundef %84, i32 noundef %87)
  br label %88

88:                                               ; preds = %80, %66
  %89 = load ptr, ptr %8, align 8
  %90 = getelementptr inbounds nuw %struct.uv_signal_s, ptr %89, i32 0, i32 12
  %91 = load i32, ptr %90, align 4
  %92 = add i32 %91, 1
  store i32 %92, ptr %90, align 4
  %93 = load ptr, ptr %8, align 8
  %94 = getelementptr inbounds nuw %struct.uv_signal_s, ptr %93, i32 0, i32 7
  %95 = load i32, ptr %94, align 8
  %96 = and i32 %95, 33554432
  %97 = icmp ne i32 %96, 0
  br i1 %97, label %98, label %100

98:                                               ; preds = %88
  %99 = load ptr, ptr %8, align 8
  call void @uv__signal_stop(ptr noundef %99)
  br label %100

100:                                              ; preds = %98, %88
  br label %101

101:                                              ; preds = %100
  %102 = load i64, ptr %12, align 8
  %103 = add i64 %102, 16
  store i64 %103, ptr %12, align 8
  br label %62

104:                                              ; preds = %62
  %105 = load i64, ptr %11, align 8
  %106 = load i64, ptr %10, align 8
  %107 = sub i64 %106, %105
  store i64 %107, ptr %10, align 8
  %108 = load i64, ptr %10, align 8
  %109 = icmp ne i64 %108, 0
  br i1 %109, label %110, label %116

110:                                              ; preds = %104
  %111 = getelementptr inbounds [512 x i8], ptr %9, i64 0, i64 0
  %112 = getelementptr inbounds [512 x i8], ptr %9, i64 0, i64 0
  %113 = load i64, ptr %11, align 8
  %114 = getelementptr inbounds nuw i8, ptr %112, i64 %113
  %115 = load i64, ptr %10, align 8
  call void @llvm.memmove.p0.p0.i64(ptr align 16 %111, ptr align 1 %114, i64 %115, i1 false)
  br label %117

116:                                              ; preds = %104
  br label %117

117:                                              ; preds = %116, %110, %48, %33
  %118 = load i64, ptr %11, align 8
  %119 = icmp eq i64 %118, 512
  br i1 %119, label %15, label %120

120:                                              ; preds = %117
  store i32 0, ptr %14, align 4
  br label %121

121:                                              ; preds = %120, %49
  call void @llvm.lifetime.end.p0(i64 4, ptr %13) #9
  call void @llvm.lifetime.end.p0(i64 8, ptr %12) #9
  call void @llvm.lifetime.end.p0(i64 8, ptr %11) #9
  call void @llvm.lifetime.end.p0(i64 8, ptr %10) #9
  call void @llvm.lifetime.end.p0(i64 512, ptr %9) #9
  call void @llvm.lifetime.end.p0(i64 8, ptr %8) #9
  call void @llvm.lifetime.end.p0(i64 8, ptr %7) #9
  %122 = load i32, ptr %14, align 4
  switch i32 %122, label %124 [
    i32 0, label %123
    i32 1, label %123
  ]

123:                                              ; preds = %121, %121
  ret void

124:                                              ; preds = %121
  unreachable
}