; Function Attrs: nounwind uwtable
define internal void @uv__signal_event(ptr noundef readonly captures(none) %0, ptr readnone captures(none) %1, i32 %2) #0 {
  %4 = alloca [512 x i8], align 16
  call void @llvm.lifetime.start.p0(i64 512, ptr nonnull %4) #10
  %5 = getelementptr inbounds nuw i8, ptr %0, i64 552
  br label %6

6:                                                ; preds = %44, %3
  %.029 = phi i64 [ 0, %3 ], [ 512, %44 ]
  %.0 = phi i64 [ 0, %3 ], [ %.1, %44 ]
  %7 = load i32, ptr %5, align 8
  %8 = getelementptr inbounds nuw i8, ptr %4, i64 %.0
  %9 = sub nuw nsw i64 512, %.0
  %10 = call i64 @read(i32 noundef %7, ptr noundef nonnull %8, i64 noundef %9) #10
  %11 = and i64 %10, 4294967295
  %12 = icmp eq i64 %11, 4294967295
  br i1 %12, label %13, label %.critedge38

13:                                               ; preds = %6
  %14 = tail call ptr @__errno_location() #12
  %15 = load i32, ptr %14, align 4
  switch i32 %15, label %.critedge [
    i32 4, label %44
    i32 11, label %16
  ]

16:                                               ; preds = %13
  %.not37 = icmp eq i64 %.0, 0
  br i1 %.not37, label %46, label %44

.critedge:                                        ; preds = %13
  tail call void @abort() #11
  unreachable

.critedge38:                                      ; preds = %6
  %sext = shl i64 %10, 32
  %17 = ashr exact i64 %sext, 32
  %18 = add nsw i64 %17, %.0
  %19 = and i64 %18, -16
  %.not40 = icmp eq i64 %19, 0
  br i1 %.not40, label %._crit_edge, label %.lr.ph

.lr.ph:                                           ; preds = %.critedge38, %38
  %.02839 = phi i64 [ %39, %38 ], [ 0, %.critedge38 ]
  %20 = getelementptr inbounds nuw i8, ptr %4, i64 %.02839
  %21 = load ptr, ptr %20, align 16
  %22 = getelementptr inbounds nuw i8, ptr %20, i64 8
  %23 = load i32, ptr %22, align 8
  %24 = getelementptr inbounds nuw i8, ptr %21, i64 104
  %25 = load i32, ptr %24, align 8
  %26 = icmp eq i32 %23, %25
  br i1 %26, label %27, label %30

27:                                               ; preds = %.lr.ph
  %28 = getelementptr inbounds nuw i8, ptr %21, i64 96
  %29 = load ptr, ptr %28, align 8
  tail call void %29(ptr noundef nonnull %21, i32 noundef %23) #10
  br label %30

30:                                               ; preds = %27, %.lr.ph
  %31 = getelementptr inbounds nuw i8, ptr %21, i64 148
  %32 = load i32, ptr %31, align 4
  %33 = add i32 %32, 1
  store i32 %33, ptr %31, align 4
  %34 = getelementptr inbounds nuw i8, ptr %21, i64 88
  %35 = load i32, ptr %34, align 8
  %36 = and i32 %35, 33554432
  %.not36 = icmp eq i32 %36, 0
  br i1 %.not36, label %38, label %37

37:                                               ; preds = %30
  tail call fastcc void @uv__signal_stop(ptr noundef nonnull %21)
  br label %38

38:                                               ; preds = %30, %37
  %39 = add nuw i64 %.02839, 16
  %40 = icmp ult i64 %39, %19
  br i1 %40, label %.lr.ph, label %._crit_edge

._crit_edge:                                      ; preds = %38, %.critedge38
  %41 = and i64 %18, 15
  %.not = icmp eq i64 %41, 0
  br i1 %.not, label %44, label %42

42:                                               ; preds = %._crit_edge
  %43 = getelementptr inbounds nuw i8, ptr %4, i64 %19
  call void @llvm.memmove.p0.p0.i64(ptr nonnull align 16 %4, ptr nonnull align 16 %43, i64 %41, i1 false)
  br label %44

44:                                               ; preds = %13, %._crit_edge, %16, %42
  %.130 = phi i64 [ %.029, %13 ], [ %.029, %16 ], [ %19, %42 ], [ %19, %._crit_edge ]
  %.1 = phi i64 [ %.0, %13 ], [ %.0, %16 ], [ %41, %42 ], [ 0, %._crit_edge ]
  %45 = icmp eq i64 %.130, 512
  br i1 %45, label %6, label %46

46:                                               ; preds = %44, %16
  call void @llvm.lifetime.end.p0(i64 512, ptr nonnull %4) #10
  ret void
}